; Function Attrs: nounwind uwtable
define range(i32 0, 2) i32 @ENGINE_set_id(ptr noundef writeonly captures(none) %0, ptr noundef %1) local_unnamed_addr #0 {
  %3 = icmp eq ptr %1, null
  br i1 %3, label %4, label %5

4:                                                ; preds = %2
  tail call void @ERR_new() #6
  tail call void @ERR_set_debug(ptr noundef nonnull @.str, i32 noundef 206, ptr noundef nonnull @__func__.ENGINE_set_id) #6
  tail call void (i32, i32, ptr, ...) @ERR_set_error(i32 noundef 38, i32 noundef 786690, ptr noundef null) #6
  br label %6

5:                                                ; preds = %2
  store ptr %1, ptr %0, align 8, !tbaa !31
  br label %6

6:                                                ; preds = %5, %4
  %.0 = phi i32 [ 0, %4 ], [ 1, %5 ]
  ret i32 %.0
}